target datalayout = "e-m:e-p270:32:32-p271:32:32-p272:64:64-i64:64-i128:128-f80:128-n8:16:32:64-S128"
target triple = "x86_64-pc-linux-gnu"

%struct.cli_crt_t = type { ptr, [64 x i8], [64 x i8], [64 x i8], [20 x i8], [20 x i8], [20 x i8], i32, [64 x i8], ptr, ptr, ptr, i64, i64, i32, i32, i32, i32, i32, ptr, ptr }
%struct.crtmgr = type { ptr, i32 }

; Function Attrs: nounwind uwtable
define ptr @crtmgr_trust_list_lookup(ptr noundef %0, ptr noundef %1, i32 noundef %2) #0 {
  %4 = alloca ptr, align 8
  %5 = alloca ptr, align 8
  %6 = alloca ptr, align 8
  %7 = alloca i32, align 4
  %8 = alloca ptr, align 8
  store ptr %0, ptr %5, align 8
  store ptr %1, ptr %6, align 8
  store i32 %2, ptr %7, align 4
  %9 = load ptr, ptr %5, align 8
  %10 = getelementptr inbounds %struct.crtmgr, ptr %9, i32 0, i32 0
  %11 = load ptr, ptr %10, align 8
  store ptr %11, ptr %8, align 8
  br label %12

12:                                               ; preds = %156, %3
  %13 = load ptr, ptr %8, align 8
  %14 = icmp ne ptr %13, null
  br i1 %14, label %15, label %160

15:                                               ; preds = %12
  %16 = load ptr, ptr %8, align 8
  %17 = getelementptr inbounds %struct.cli_crt_t, ptr %16, i32 0, i32 18
  %18 = load i32, ptr %17, align 8
  %19 = icmp ne i32 %18, 0
  br i1 %19, label %20, label %21

20:                                               ; preds = %15
  br label %156

21:                                               ; preds = %15
  %22 = load i32, ptr %7, align 4
  %23 = icmp ne i32 %22, 0
  br i1 %23, label %24, label %31

24:                                               ; preds = %21
  %25 = load ptr, ptr %8, align 8
  %26 = getelementptr inbounds %struct.cli_crt_t, ptr %25, i32 0, i32 14
  %27 = load i32, ptr %26, align 8
  %28 = icmp ne i32 %27, 0
  br i1 %28, label %29, label %30

29:                                               ; preds = %24
  br label %156

30:                                               ; preds = %24
  br label %67

31:                                               ; preds = %21
  %32 = load ptr, ptr %6, align 8
  %33 = getelementptr inbounds %struct.cli_crt_t, ptr %32, i32 0, i32 14
  %34 = load i32, ptr %33, align 8
  %35 = load ptr, ptr %8, align 8
  %36 = getelementptr inbounds %struct.cli_crt_t, ptr %35, i32 0, i32 14
  %37 = load i32, ptr %36, align 8
  %38 = icmp ne i32 %34, %37
  br i1 %38, label %65, label %39

39:                                               ; preds = %31
  %40 = load ptr, ptr %6, align 8
  %41 = getelementptr inbounds %struct.cli_crt_t, ptr %40, i32 0, i32 5
  %42 = getelementptr inbounds [20 x i8], ptr %41, i64 0, i64 0
  %43 = load ptr, ptr %8, align 8
  %44 = getelementptr inbounds %struct.cli_crt_t, ptr %43, i32 0, i32 5
  %45 = getelementptr inbounds [20 x i8], ptr %44, i64 0, i64 0
  %46 = call i32 @memcmp(ptr noundef %42, ptr noundef %45, i64 noundef 20) #7
  %47 = icmp ne i32 %46, 0
  br i1 %47, label %65, label %48

48:                                               ; preds = %39
  %49 = load ptr, ptr %6, align 8
  %50 = getelementptr inbounds %struct.cli_crt_t, ptr %49, i32 0, i32 7
  %51 = load i32, ptr %50, align 4
  %52 = load ptr, ptr %8, align 8
  %53 = getelementptr inbounds %struct.cli_crt_t, ptr %52, i32 0, i32 7
  %54 = load i32, ptr %53, align 4
  %55 = icmp ne i32 %51, %54
  br i1 %55, label %65, label %56

56:                                               ; preds = %48
  %57 = load ptr, ptr %6, align 8
  %58 = getelementptr inbounds %struct.cli_crt_t, ptr %57, i32 0, i32 10
  %59 = load ptr, ptr %58, align 8
  %60 = load ptr, ptr %8, align 8
  %61 = getelementptr inbounds %struct.cli_crt_t, ptr %60, i32 0, i32 10
  %62 = load ptr, ptr %61, align 8
  %63 = call i32 @BN_cmp(ptr noundef %59, ptr noundef %62)
  %64 = icmp ne i32 %63, 0
  br i1 %64, label %65, label %66

65:                                               ; preds = %56, %48, %39, %31
  br label %156

66:                                               ; preds = %56
  br label %67

67:                                               ; preds = %66, %30
  %68 = load ptr, ptr %8, align 8
  %69 = getelementptr inbounds %struct.cli_crt_t, ptr %68, i32 0, i32 7
  %70 = load i32, ptr %69, align 4
  %71 = icmp ne i32 %70, 0
  br i1 %71, label %83, label %72

72:                                               ; preds = %67
  %73 = load ptr, ptr %6, align 8
  %74 = getelementptr inbounds %struct.cli_crt_t, ptr %73, i32 0, i32 6
  %75 = getelementptr inbounds [20 x i8], ptr %74, i64 0, i64 0
  %76 = load ptr, ptr %8, align 8
  %77 = getelementptr inbounds %struct.cli_crt_t, ptr %76, i32 0, i32 6
  %78 = getelementptr inbounds [20 x i8], ptr %77, i64 0, i64 0
  %79 = call i32 @memcmp(ptr noundef %75, ptr noundef %78, i64 noundef 20) #7
  %80 = icmp ne i32 %79, 0
  br i1 %80, label %81, label %82

81:                                               ; preds = %72
  br label %156

82:                                               ; preds = %72
  br label %83

83:                                               ; preds = %82, %67
  %84 = load ptr, ptr %6, align 8
  %85 = getelementptr inbounds %struct.cli_crt_t, ptr %84, i32 0, i32 12
  %86 = load i64, ptr %85, align 8
  %87 = load ptr, ptr %8, align 8
  %88 = getelementptr inbounds %struct.cli_crt_t, ptr %87, i32 0, i32 12
  %89 = load i64, ptr %88, align 8
  %90 = icmp sge i64 %86, %89
  br i1 %90, label %91, label %155

91:                                               ; preds = %83
  %92 = load ptr, ptr %6, align 8
  %93 = getelementptr inbounds %struct.cli_crt_t, ptr %92, i32 0, i32 13
  %94 = load i64, ptr %93, align 8
  %95 = load ptr, ptr %8, align 8
  %96 = getelementptr inbounds %struct.cli_crt_t, ptr %95, i32 0, i32 13
  %97 = load i64, ptr %96, align 8
  %98 = icmp sle i64 %94, %97
  br i1 %98, label %99, label %155

99:                                               ; preds = %91
  %100 = load ptr, ptr %8, align 8
  %101 = getelementptr inbounds %struct.cli_crt_t, ptr %100, i32 0, i32 15
  %102 = load i32, ptr %101, align 4
  %103 = load ptr, ptr %6, align 8
  %104 = getelementptr inbounds %struct.cli_crt_t, ptr %103, i32 0, i32 15
  %105 = load i32, ptr %104, align 4
  %106 = or i32 %102, %105
  %107 = load ptr, ptr %8, align 8
  %108 = getelementptr inbounds %struct.cli_crt_t, ptr %107, i32 0, i32 15
  %109 = load i32, ptr %108, align 4
  %110 = icmp eq i32 %106, %109
  br i1 %110, label %111, label %155

111:                                              ; preds = %99
  %112 = load ptr, ptr %8, align 8
  %113 = getelementptr inbounds %struct.cli_crt_t, ptr %112, i32 0, i32 16
  %114 = load i32, ptr %113, align 8
  %115 = load ptr, ptr %6, align 8
  %116 = getelementptr inbounds %struct.cli_crt_t, ptr %115, i32 0, i32 16
  %117 = load i32, ptr %116, align 8
  %118 = or i32 %114, %117
  %119 = load ptr, ptr %8, align 8
  %120 = getelementptr inbounds %struct.cli_crt_t, ptr %119, i32 0, i32 16
  %121 = load i32, ptr %120, align 8
  %122 = icmp eq i32 %118, %121
  br i1 %122, label %123, label %155

123:                                              ; preds = %111
  %124 = load ptr, ptr %8, align 8
  %125 = getelementptr inbounds %struct.cli_crt_t, ptr %124, i32 0, i32 17
  %126 = load i32, ptr %125, align 4
  %127 = load ptr, ptr %6, align 8
  %128 = getelementptr inbounds %struct.cli_crt_t, ptr %127, i32 0, i32 17
  %129 = load i32, ptr %128, align 4
  %130 = or i32 %126, %129
  %131 = load ptr, ptr %8, align 8
  %132 = getelementptr inbounds %struct.cli_crt_t, ptr %131, i32 0, i32 17
  %133 = load i32, ptr %132, align 4
  %134 = icmp eq i32 %130, %133
  br i1 %134, label %135, label %155

135:                                              ; preds = %123
  %136 = load ptr, ptr %6, align 8
  %137 = getelementptr inbounds %struct.cli_crt_t, ptr %136, i32 0, i32 4
  %138 = getelementptr inbounds [20 x i8], ptr %137, i64 0, i64 0
  %139 = load ptr, ptr %8, align 8
  %140 = getelementptr inbounds %struct.cli_crt_t, ptr %139, i32 0, i32 4
  %141 = getelementptr inbounds [20 x i8], ptr %140, i64 0, i64 0
  %142 = call i32 @memcmp(ptr noundef %138, ptr noundef %141, i64 noundef 20) #7
  %143 = icmp ne i32 %142, 0
  br i1 %143, label %155, label %144

144:                                              ; preds = %135
  %145 = load ptr, ptr %6, align 8
  %146 = getelementptr inbounds %struct.cli_crt_t, ptr %145, i32 0, i32 9
  %147 = load ptr, ptr %146, align 8
  %148 = load ptr, ptr %8, align 8
  %149 = getelementptr inbounds %struct.cli_crt_t, ptr %148, i32 0, i32 9
  %150 = load ptr, ptr %149, align 8
  %151 = call i32 @BN_cmp(ptr noundef %147, ptr noundef %150)
  %152 = icmp ne i32 %151, 0
  br i1 %152, label %155, label %153

153:                                              ; preds = %144
  %154 = load ptr, ptr %8, align 8
  store ptr %154, ptr %4, align 8
  br label %161

155:                                              ; preds = %144, %135, %123, %111, %99, %91, %83
  br label %156

156:                                              ; preds = %155, %81, %65, %29, %20
  %157 = load ptr, ptr %8, align 8
  %158 = getelementptr inbounds %struct.cli_crt_t, ptr %157, i32 0, i32 20
  %159 = load ptr, ptr %158, align 8
  store ptr %159, ptr %8, align 8
  br label %12

160:                                              ; preds = %12
  store ptr null, ptr %4, align 8
  br label %161

161:                                              ; preds = %160, %153
  %162 = load ptr, ptr %4, align 8
  ret ptr %162
}