; Function Attrs: nounwind uwtable
define ptr @crtmgr_trust_list_lookup(ptr nocapture noundef readonly %0, ptr nocapture noundef readonly %1, i32 noundef %2) local_unnamed_addr #0 {
  %4 = getelementptr inbounds i8, ptr %1, i64 328
  %.051 = load ptr, ptr %0, align 8
  %.not52 = icmp eq ptr %.051, null
  br i1 %.not52, label %._crit_edge, label %.lr.ph

.lr.ph:                                           ; preds = %3
  %.not37 = icmp eq i32 %2, 0
  %5 = getelementptr inbounds i8, ptr %1, i64 368
  %6 = getelementptr inbounds i8, ptr %1, i64 220
  %7 = getelementptr inbounds i8, ptr %1, i64 260
  %8 = getelementptr inbounds i8, ptr %1, i64 336
  %9 = getelementptr inbounds i8, ptr %1, i64 240
  %10 = getelementptr inbounds i8, ptr %1, i64 352
  %11 = getelementptr inbounds i8, ptr %1, i64 360
  %12 = getelementptr inbounds i8, ptr %1, i64 372
  %13 = getelementptr inbounds i8, ptr %1, i64 376
  %14 = getelementptr inbounds i8, ptr %1, i64 380
  %15 = getelementptr inbounds i8, ptr %1, i64 200
  br label %16

16:                                               ; preds = %.lr.ph, %76
  %.053 = phi ptr [ %.051, %.lr.ph ], [ %.0, %76 ]
  %17 = getelementptr inbounds i8, ptr %.053, i64 384
  %18 = load i32, ptr %17, align 8
  %.not36 = icmp eq i32 %18, 0
  br i1 %.not36, label %19, label %76

19:                                               ; preds = %16
  br i1 %.not37, label %23, label %20

20:                                               ; preds = %19
  %21 = getelementptr inbounds i8, ptr %.053, i64 368
  %22 = load i32, ptr %21, align 8
  %.not42 = icmp eq i32 %22, 0
  br i1 %.not42, label %38, label %76

23:                                               ; preds = %19
  %24 = load i32, ptr %5, align 8
  %25 = getelementptr inbounds i8, ptr %.053, i64 368
  %26 = load i32, ptr %25, align 8
  %.not38 = icmp eq i32 %24, %26
  br i1 %.not38, label %27, label %76

27:                                               ; preds = %23
  %28 = getelementptr inbounds i8, ptr %.053, i64 220
  %bcmp = tail call i32 @bcmp(ptr noundef nonnull dereferenceable(20) %6, ptr noundef nonnull dereferenceable(20) %28, i64 20)
  %.not39 = icmp eq i32 %bcmp, 0
  br i1 %.not39, label %29, label %76

29:                                               ; preds = %27
  %30 = load i32, ptr %7, align 4
  %31 = getelementptr inbounds i8, ptr %.053, i64 260
  %32 = load i32, ptr %31, align 4
  %.not40 = icmp eq i32 %30, %32
  br i1 %.not40, label %33, label %76

33:                                               ; preds = %29
  %34 = load ptr, ptr %8, align 8
  %35 = getelementptr inbounds i8, ptr %.053, i64 336
  %36 = load ptr, ptr %35, align 8
  %37 = tail call i32 @BN_cmp(ptr noundef %34, ptr noundef %36) #10
  %.not41 = icmp eq i32 %37, 0
  br i1 %.not41, label %38, label %76

38:                                               ; preds = %33, %20
  %39 = getelementptr inbounds i8, ptr %.053, i64 260
  %40 = load i32, ptr %39, align 4
  %.not43 = icmp eq i32 %40, 0
  br i1 %.not43, label %41, label %43

41:                                               ; preds = %38
  %42 = getelementptr inbounds i8, ptr %.053, i64 240
  %bcmp44 = tail call i32 @bcmp(ptr noundef nonnull dereferenceable(20) %9, ptr noundef nonnull dereferenceable(20) %42, i64 20)
  %.not45 = icmp eq i32 %bcmp44, 0
  br i1 %.not45, label %43, label %76

43:                                               ; preds = %41, %38
  %44 = load i64, ptr %10, align 8
  %45 = getelementptr inbounds i8, ptr %.053, i64 352
  %46 = load i64, ptr %45, align 8
  %.not46 = icmp slt i64 %44, %46
  br i1 %.not46, label %76, label %47

47:                                               ; preds = %43
  %48 = load i64, ptr %11, align 8
  %49 = getelementptr inbounds i8, ptr %.053, i64 360
  %50 = load i64, ptr %49, align 8
  %.not47 = icmp sgt i64 %48, %50
  br i1 %.not47, label %76, label %51

51:                                               ; preds = %47
  %52 = getelementptr inbounds i8, ptr %.053, i64 372
  %53 = load i32, ptr %52, align 4
  %54 = load i32, ptr %12, align 4
  %55 = or i32 %54, %53
  %56 = icmp eq i32 %55, %53
  br i1 %56, label %57, label %76

57:                                               ; preds = %51
  %58 = getelementptr inbounds i8, ptr %.053, i64 376
  %59 = load i32, ptr %58, align 8
  %60 = load i32, ptr %13, align 8
  %61 = or i32 %60, %59
  %62 = icmp eq i32 %61, %59
  br i1 %62, label %63, label %76

63:                                               ; preds = %57
  %64 = getelementptr inbounds i8, ptr %.053, i64 380
  %65 = load i32, ptr %64, align 4
  %66 = load i32, ptr %14, align 4
  %67 = or i32 %66, %65
  %68 = icmp eq i32 %67, %65
  br i1 %68, label %69, label %76

69:                                               ; preds = %63
  %70 = getelementptr inbounds i8, ptr %.053, i64 200
  %bcmp48 = tail call i32 @bcmp(ptr noundef nonnull dereferenceable(20) %15, ptr noundef nonnull dereferenceable(20) %70, i64 20)
  %.not49 = icmp eq i32 %bcmp48, 0
  br i1 %.not49, label %71, label %76

71:                                               ; preds = %69
  %72 = load ptr, ptr %4, align 8
  %73 = getelementptr inbounds i8, ptr %.053, i64 328
  %74 = load ptr, ptr %73, align 8
  %75 = tail call i32 @BN_cmp(ptr noundef %72, ptr noundef %74) #10
  %.not50 = icmp eq i32 %75, 0
  br i1 %.not50, label %._crit_edge, label %76

76:                                               ; preds = %43, %47, %51, %57, %63, %69, %71, %41, %23, %27, %29, %33, %20, %16
  %77 = getelementptr inbounds i8, ptr %.053, i64 400
  %.0 = load ptr, ptr %77, align 8
  %.not = icmp eq ptr %.0, null
  br i1 %.not, label %._crit_edge, label %16

._crit_edge:                                      ; preds = %71, %76, %3
  %.0.lcssa = phi ptr [ null, %3 ], [ null, %76 ], [ %.053, %71 ]
  ret ptr %.0.lcssa
}